(lp0
(S'cppflags'
p1
ccopy_reg
_reconstructor
p2
(cino.utils
SpaceList
p3
c__builtin__
list
p4
(lp5
S'-mmcu=atmega328p'
p6
aS'-DF_CPU=16000000L'
p7
aS'-DARDUINO=105'
p8
aS'-I/Applications/Arduino.app/Contents/Resources/Java/hardware/arduino/cores/arduino'
p9
aS'-ffunction-sections'
p10
aS'-fdata-sections'
p11
aS'-g'
p12
aS'-Os'
p13
aS'-w'
p14
aS'-I/Applications/Arduino.app/Contents/Resources/Java/hardware/arduino/variants/standard'
p15
aS'-I/Applications/Arduino.app/Contents/Resources/Java/hardware/arduino/cores/arduino'
p16
aS'-I/Applications/Arduino.app/Contents/Resources/Java/hardware/arduino/cores/arduino/avr-libc'
p17
atp18
Rp19
tp20
a(S'cxx'
p21
S'/Applications/Arduino.app/Contents/Resources/Java/hardware/tools/avr/bin/avr-g++'
p22
tp23
a(S'version.txt'
p24
S'/Applications/Arduino.app/Contents/Resources/Java/lib/version.txt'
p25
tp26
a(S'used_libs'
p27
(lp28
S'/Applications/Arduino.app/Contents/Resources/Java/hardware/arduino/cores/arduino'
p29
atp30
a(S'cc'
p31
S'/Applications/Arduino.app/Contents/Resources/Java/hardware/tools/avr/bin/avr-gcc'
p32
tp33
a(S'make'
p34
S'/Applications/Arduino.app/Contents/Resources/Java/hardware/tools/avr/bin/make'
p35
tp36
a(S'cflags'
p37
g2
(g3
g4
(lp38
tp39
Rp40
tp41
a(S'build_dir'
p42
S'.build/uno'
p43
tp44
a(S'arduino_core_dir'
p45
g29
tp46
a(S'boards.txt'
p47
S'/Applications/Arduino.app/Contents/Resources/Java/hardware/arduino/boards.txt'
p48
tp49
a(S'cxxflags'
p50
g2
(g3
g4
(lp51
S'-fno-exceptions'
p52
atp53
Rp54
tp55
a(S'arduino_variants_dir'
p56
S'/Applications/Arduino.app/Contents/Resources/Java/hardware/arduino/variants'
p57
tp58
a(S'ar'
p59
S'/Applications/Arduino.app/Contents/Resources/Java/hardware/tools/avr/bin/avr-ar'
p60
tp61
a(S'names'
p62
(dp63
S'cpp'
p64
S'%s.cpp'
p65
sS'obj'
p66
S'%s.o'
p67
sS'deps'
p68
S'%s.d'
p69
sS'lib'
p70
S'lib%s.a'
p71
stp72
a(S'deps'
p73
g2
(g3
g4
(lp74
S'.build/uno/src/dependencies.d'
p75
aS'.build/uno/arduino/dependencies.d'
p76
atp77
Rp78
tp79
a(S'arduino_libraries_dir'
p80
S'/Applications/Arduino.app/Contents/Resources/Java/libraries'
p81
tp82
a(S'arduino_lib_version'
p83
g2
(cino.environment
Version
p84
c__builtin__
tuple
p85
(I1
I0
I5
tp86
tp87
Rp88
tp89
a(S'objcopy'
p90
S'/Applications/Arduino.app/Contents/Resources/Java/hardware/tools/avr/bin/avr-objcopy'
p91
tp92
a(S'board_models'
p93
cino.environment
BoardModels
p94
((lp95
(lp96
S'uno'
p97
a(dp98
S'bootloader'
p99
(dp100
S'extended_fuses'
p101
S'0x05'
p102
sS'high_fuses'
p103
S'0xde'
p104
sS'low_fuses'
p105
S'0xff'
p106
sS'lock_bits'
p107
S'0x0F'
p108
sS'file'
p109
S'optiboot_atmega328.hex'
p110
sS'path'
p111
S'optiboot'
p112
sS'unlock_bits'
p113
S'0x3F'
p114
ssS'upload'
p115
(dp116
S'protocol'
p117
S'arduino'
p118
sS'maximum_size'
p119
S'32256'
p120
sS'speed'
p121
S'115200'
p122
ssS'build'
p123
(dp124
S'core'
p125
S'arduino'
p126
sS'mcu'
p127
S'atmega328p'
p128
sS'f_cpu'
p129
S'16000000L'
p130
sS'variant'
p131
S'standard'
p132
ssS'name'
p133
S'Arduino Uno'
p134
saa(lp135
S'atmega328'
p136
a(dp137
S'bootloader'
p138
(dp139
S'extended_fuses'
p140
S'0x05'
p141
sS'high_fuses'
p142
S'0xDA'
p143
sS'low_fuses'
p144
S'0xFF'
p145
sS'lock_bits'
p146
S'0x0F'
p147
sS'file'
p148
S'ATmegaBOOT_168_atmega328.hex'
p149
sS'path'
p150
S'atmega'
p151
sS'unlock_bits'
p152
S'0x3F'
p153
ssS'upload'
p154
(dp155
S'protocol'
p156
S'arduino'
p157
sS'maximum_size'
p158
S'30720'
p159
sS'speed'
p160
S'57600'
p161
ssS'build'
p162
(dp163
S'core'
p164
S'arduino'
p165
sS'mcu'
p166
S'atmega328p'
p167
sS'f_cpu'
p168
S'16000000L'
p169
sS'variant'
p170
S'standard'
p171
ssS'name'
p172
S'Arduino Duemilanove w/ ATmega328'
p173
saa(lp174
S'diecimila'
p175
a(dp176
S'bootloader'
p177
(dp178
S'extended_fuses'
p179
S'0x00'
p180
sS'high_fuses'
p181
S'0xdd'
p182
sS'low_fuses'
p183
S'0xff'
p184
sS'lock_bits'
p185
S'0x0F'
p186
sS'file'
p187
S'ATmegaBOOT_168_diecimila.hex'
p188
sS'path'
p189
S'atmega'
p190
sS'unlock_bits'
p191
S'0x3F'
p192
ssS'upload'
p193
(dp194
S'protocol'
p195
S'arduino'
p196
sS'maximum_size'
p197
S'14336'
p198
sS'speed'
p199
S'19200'
p200
ssS'build'
p201
(dp202
S'core'
p203
S'arduino'
p204
sS'mcu'
p205
S'atmega168'
p206
sS'f_cpu'
p207
S'16000000L'
p208
sS'variant'
p209
S'standard'
p210
ssS'name'
p211
S'Arduino Diecimila or Duemilanove w/ ATmega168'
p212
saa(lp213
S'nano328'
p214
a(dp215
S'bootloader'
p216
(dp217
S'extended_fuses'
p218
S'0x05'
p219
sS'high_fuses'
p220
S'0xDA'
p221
sS'low_fuses'
p222
S'0xFF'
p223
sS'lock_bits'
p224
S'0x0F'
p225
sS'file'
p226
S'ATmegaBOOT_168_atmega328.hex'
p227
sS'path'
p228
S'atmega'
p229
sS'unlock_bits'
p230
S'0x3F'
p231
ssS'upload'
p232
(dp233
S'protocol'
p234
S'arduino'
p235
sS'maximum_size'
p236
S'30720'
p237
sS'speed'
p238
S'57600'
p239
ssS'build'
p240
(dp241
S'core'
p242
S'arduino'
p243
sS'mcu'
p244
S'atmega328p'
p245
sS'f_cpu'
p246
S'16000000L'
p247
sS'variant'
p248
S'eightanaloginputs'
p249
ssS'name'
p250
S'Arduino Nano w/ ATmega328'
p251
saa(lp252
S'nano'
p253
a(dp254
S'bootloader'
p255
(dp256
S'extended_fuses'
p257
S'0x00'
p258
sS'high_fuses'
p259
S'0xdd'
p260
sS'low_fuses'
p261
S'0xff'
p262
sS'lock_bits'
p263
S'0x0F'
p264
sS'file'
p265
S'ATmegaBOOT_168_diecimila.hex'
p266
sS'path'
p267
S'atmega'
p268
sS'unlock_bits'
p269
S'0x3F'
p270
ssS'upload'
p271
(dp272
S'protocol'
p273
S'arduino'
p274
sS'maximum_size'
p275
S'14336'
p276
sS'speed'
p277
S'19200'
p278
ssS'build'
p279
(dp280
S'core'
p281
S'arduino'
p282
sS'mcu'
p283
S'atmega168'
p284
sS'f_cpu'
p285
S'16000000L'
p286
sS'variant'
p287
S'eightanaloginputs'
p288
ssS'name'
p289
S'Arduino Nano w/ ATmega168'
p290
saa(lp291
S'mega2560'
p292
a(dp293
S'bootloader'
p294
(dp295
S'extended_fuses'
p296
S'0xFD'
p297
sS'high_fuses'
p298
S'0xD8'
p299
sS'low_fuses'
p300
S'0xFF'
p301
sS'lock_bits'
p302
S'0x0F'
p303
sS'file'
p304
S'stk500boot_v2_mega2560.hex'
p305
sS'path'
p306
S'stk500v2'
p307
sS'unlock_bits'
p308
S'0x3F'
p309
ssS'upload'
p310
(dp311
S'protocol'
p312
S'wiring'
p313
sS'maximum_size'
p314
S'258048'
p315
sS'speed'
p316
S'115200'
p317
ssS'build'
p318
(dp319
S'core'
p320
S'arduino'
p321
sS'mcu'
p322
S'atmega2560'
p323
sS'f_cpu'
p324
S'16000000L'
p325
sS'variant'
p326
S'mega'
p327
ssS'name'
p328
S'Arduino Mega 2560 or Mega ADK'
p329
saa(lp330
S'mega'
p331
a(dp332
S'bootloader'
p333
(dp334
S'extended_fuses'
p335
S'0xF5'
p336
sS'high_fuses'
p337
S'0xDA'
p338
sS'low_fuses'
p339
S'0xFF'
p340
sS'lock_bits'
p341
S'0x0F'
p342
sS'file'
p343
S'ATmegaBOOT_168_atmega1280.hex'
p344
sS'path'
p345
S'atmega'
p346
sS'unlock_bits'
p347
S'0x3F'
p348
ssS'upload'
p349
(dp350
S'protocol'
p351
S'arduino'
p352
sS'maximum_size'
p353
S'126976'
p354
sS'speed'
p355
S'57600'
p356
ssS'build'
p357
(dp358
S'core'
p359
S'arduino'
p360
sS'mcu'
p361
S'atmega1280'
p362
sS'f_cpu'
p363
S'16000000L'
p364
sS'variant'
p365
S'mega'
p366
ssS'name'
p367
S'Arduino Mega (ATmega1280)'
p368
saa(lp369
S'leonardo'
p370
a(dp371
S'bootloader'
p372
(dp373
S'extended_fuses'
p374
S'0xcb'
p375
sS'high_fuses'
p376
S'0xd8'
p377
sS'low_fuses'
p378
S'0xff'
p379
sS'lock_bits'
p380
S'0x2F'
p381
sS'file'
p382
S'Caterina-Leonardo.hex'
p383
sS'path'
p384
S'caterina'
p385
sS'unlock_bits'
p386
S'0x3F'
p387
ssS'upload'
p388
(dp389
S'protocol'
p390
S'avr109'
p391
sS'maximum_size'
p392
S'28672'
p393
sS'speed'
p394
S'57600'
p395
sS'disable_flushing'
p396
S'true'
p397
ssS'build'
p398
(dp399
S'core'
p400
S'arduino'
p401
sS'f_cpu'
p402
S'16000000L'
p403
sS'vid'
p404
S'0x2341'
p405
sS'pid'
p406
S'0x8036'
p407
sS'variant'
p408
S'leonardo'
p409
sS'mcu'
p410
S'atmega32u4'
p411
ssS'name'
p412
S'Arduino Leonardo'
p413
saa(lp414
S'esplora'
p415
a(dp416
S'bootloader'
p417
(dp418
S'extended_fuses'
p419
S'0xcb'
p420
sS'high_fuses'
p421
S'0xd8'
p422
sS'low_fuses'
p423
S'0xff'
p424
sS'lock_bits'
p425
S'0x2F'
p426
sS'file'
p427
S'Caterina-Esplora.hex'
p428
sS'path'
p429
S'caterina'
p430
sS'unlock_bits'
p431
S'0x3F'
p432
ssS'upload'
p433
(dp434
S'protocol'
p435
S'avr109'
p436
sS'maximum_size'
p437
S'28672'
p438
sS'speed'
p439
S'57600'
p440
sS'disable_flushing'
p441
S'true'
p442
ssS'build'
p443
(dp444
S'core'
p445
S'arduino'
p446
sS'f_cpu'
p447
S'16000000L'
p448
sS'vid'
p449
S'0x2341'
p450
sS'pid'
p451
S'0x803C'
p452
sS'variant'
p453
S'leonardo'
p454
sS'mcu'
p455
S'atmega32u4'
p456
ssS'name'
p457
S'Arduino Esplora'
p458
saa(lp459
S'micro'
p460
a(dp461
S'bootloader'
p462
(dp463
S'extended_fuses'
p464
S'0xcb'
p465
sS'high_fuses'
p466
S'0xd8'
p467
sS'low_fuses'
p468
S'0xff'
p469
sS'lock_bits'
p470
S'0x2F'
p471
sS'file'
p472
S'Caterina-Micro.hex'
p473
sS'path'
p474
S'caterina'
p475
sS'unlock_bits'
p476
S'0x3F'
p477
ssS'upload'
p478
(dp479
S'protocol'
p480
S'avr109'
p481
sS'maximum_size'
p482
S'28672'
p483
sS'speed'
p484
S'57600'
p485
sS'disable_flushing'
p486
S'true'
p487
ssS'build'
p488
(dp489
S'core'
p490
S'arduino'
p491
sS'f_cpu'
p492
S'16000000L'
p493
sS'vid'
p494
S'0x2341'
p495
sS'pid'
p496
S'0x8037'
p497
sS'variant'
p498
S'micro'
p499
sS'mcu'
p500
S'atmega32u4'
p501
ssS'name'
p502
S'Arduino Micro'
p503
saa(lp504
S'mini328'
p505
a(dp506
S'bootloader'
p507
(dp508
S'extended_fuses'
p509
S'0x05'
p510
sS'high_fuses'
p511
S'0xd8'
p512
sS'low_fuses'
p513
S'0xff'
p514
sS'lock_bits'
p515
S'0x0F'
p516
sS'file'
p517
S'optiboot_atmega328-Mini.hex'
p518
sS'path'
p519
S'optiboot'
p520
sS'unlock_bits'
p521
S'0x3F'
p522
ssS'upload'
p523
(dp524
S'protocol'
p525
S'arduino'
p526
sS'maximum_size'
p527
S'28672'
p528
sS'speed'
p529
S'115200'
p530
ssS'build'
p531
(dp532
S'core'
p533
S'arduino'
p534
sS'mcu'
p535
S'atmega328p'
p536
sS'f_cpu'
p537
S'16000000L'
p538
sS'variant'
p539
S'eightanaloginputs'
p540
ssS'name'
p541
S'Arduino Mini w/ ATmega328'
p542
saa(lp543
S'mini'
p544
a(dp545
S'bootloader'
p546
(dp547
S'extended_fuses'
p548
S'0x00'
p549
sS'high_fuses'
p550
S'0xdd'
p551
sS'low_fuses'
p552
S'0xff'
p553
sS'lock_bits'
p554
S'0x0F'
p555
sS'file'
p556
S'ATmegaBOOT_168_ng.hex'
p557
sS'path'
p558
S'atmega'
p559
sS'unlock_bits'
p560
S'0x3F'
p561
ssS'upload'
p562
(dp563
S'protocol'
p564
S'arduino'
p565
sS'maximum_size'
p566
S'14336'
p567
sS'speed'
p568
S'19200'
p569
ssS'build'
p570
(dp571
S'core'
p572
S'arduino'
p573
sS'mcu'
p574
S'atmega168'
p575
sS'f_cpu'
p576
S'16000000L'
p577
sS'variant'
p578
S'eightanaloginputs'
p579
ssS'name'
p580
S'Arduino Mini w/ ATmega168'
p581
saa(lp582
S'ethernet'
p583
a(dp584
S'bootloader'
p585
(dp586
S'extended_fuses'
p587
S'0x05'
p588
sS'high_fuses'
p589
S'0xde'
p590
sS'low_fuses'
p591
S'0xff'
p592
sS'lock_bits'
p593
S'0x0F'
p594
sS'file'
p595
S'optiboot_atmega328.hex'
p596
sS'path'
p597
S'optiboot'
p598
sS'unlock_bits'
p599
S'0x3F'
p600
ssS'upload'
p601
(dp602
S'protocol'
p603
S'arduino'
p604
sS'maximum_size'
p605
S'32256'
p606
sS'speed'
p607
S'115200'
p608
ssS'build'
p609
(dp610
S'variant'
p611
S'standard'
p612
sS'mcu'
p613
S'atmega328p'
p614
sS'f_cpu'
p615
S'16000000L'
p616
sS'core'
p617
S'arduino'
p618
ssS'name'
p619
S'Arduino Ethernet'
p620
saa(lp621
S'fio'
p622
a(dp623
S'bootloader'
p624
(dp625
S'extended_fuses'
p626
S'0x05'
p627
sS'high_fuses'
p628
S'0xDA'
p629
sS'low_fuses'
p630
S'0xFF'
p631
sS'lock_bits'
p632
S'0x0F'
p633
sS'file'
p634
S'ATmegaBOOT_168_atmega328_pro_8MHz.hex'
p635
sS'path'
p636
S'arduino:atmega'
p637
sS'unlock_bits'
p638
S'0x3F'
p639
ssS'upload'
p640
(dp641
S'protocol'
p642
S'arduino'
p643
sS'maximum_size'
p644
S'30720'
p645
sS'speed'
p646
S'57600'
p647
ssS'build'
p648
(dp649
S'core'
p650
S'arduino'
p651
sS'mcu'
p652
S'atmega328p'
p653
sS'f_cpu'
p654
S'8000000L'
p655
sS'variant'
p656
S'eightanaloginputs'
p657
ssS'name'
p658
S'Arduino Fio'
p659
saa(lp660
S'bt328'
p661
a(dp662
S'bootloader'
p663
(dp664
S'extended_fuses'
p665
S'0x05'
p666
sS'high_fuses'
p667
S'0xd8'
p668
sS'low_fuses'
p669
S'0xff'
p670
sS'lock_bits'
p671
S'0x0F'
p672
sS'file'
p673
S'ATmegaBOOT_168_atmega328_bt.hex'
p674
sS'path'
p675
S'bt'
p676
sS'unlock_bits'
p677
S'0x3F'
p678
ssS'upload'
p679
(dp680
S'protocol'
p681
S'arduino'
p682
sS'maximum_size'
p683
S'28672'
p684
sS'speed'
p685
S'19200'
p686
sS'disable_flushing'
p687
S'true'
p688
ssS'build'
p689
(dp690
S'core'
p691
S'arduino'
p692
sS'mcu'
p693
S'atmega328p'
p694
sS'f_cpu'
p695
S'16000000L'
p696
sS'variant'
p697
S'eightanaloginputs'
p698
ssS'name'
p699
S'Arduino BT w/ ATmega328'
p700
saa(lp701
S'bt'
p702
a(dp703
S'bootloader'
p704
(dp705
S'extended_fuses'
p706
S'0x00'
p707
sS'high_fuses'
p708
S'0xdd'
p709
sS'low_fuses'
p710
S'0xff'
p711
sS'lock_bits'
p712
S'0x0F'
p713
sS'file'
p714
S'ATmegaBOOT_168.hex'
p715
sS'path'
p716
S'bt'
p717
sS'unlock_bits'
p718
S'0x3F'
p719
ssS'upload'
p720
(dp721
S'protocol'
p722
S'arduino'
p723
sS'maximum_size'
p724
S'14336'
p725
sS'speed'
p726
S'19200'
p727
sS'disable_flushing'
p728
S'true'
p729
ssS'build'
p730
(dp731
S'core'
p732
S'arduino'
p733
sS'mcu'
p734
S'atmega168'
p735
sS'f_cpu'
p736
S'16000000L'
p737
sS'variant'
p738
S'eightanaloginputs'
p739
ssS'name'
p740
S'Arduino BT w/ ATmega168'
p741
saa(lp742
S'LilyPadUSB'
p743
a(dp744
S'bootloader'
p745
(dp746
S'extended_fuses'
p747
S'0xce'
p748
sS'high_fuses'
p749
S'0xd8'
p750
sS'low_fuses'
p751
S'0xff'
p752
sS'lock_bits'
p753
S'0x2F'
p754
sS'file'
p755
S'Caterina-LilyPadUSB.hex'
p756
sS'path'
p757
S'caterina-LilyPadUSB'
p758
sS'unlock_bits'
p759
S'0x3F'
p760
ssS'upload'
p761
(dp762
S'protocol'
p763
S'avr109'
p764
sS'maximum_size'
p765
S'28672'
p766
sS'speed'
p767
S'57600'
p768
sS'disable_flushing'
p769
S'true'
p770
ssS'build'
p771
(dp772
S'core'
p773
S'arduino'
p774
sS'f_cpu'
p775
S'8000000L'
p776
sS'vid'
p777
S'0x1B4F'
p778
sS'pid'
p779
S'0x9208'
p780
sS'variant'
p781
S'leonardo'
p782
sS'mcu'
p783
S'atmega32u4'
p784
ssS'name'
p785
S'LilyPad Arduino USB'
p786
saa(lp787
S'lilypad328'
p788
a(dp789
S'bootloader'
p790
(dp791
S'extended_fuses'
p792
S'0x05'
p793
sS'high_fuses'
p794
S'0xDA'
p795
sS'low_fuses'
p796
S'0xFF'
p797
sS'lock_bits'
p798
S'0x0F'
p799
sS'file'
p800
S'ATmegaBOOT_168_atmega328_pro_8MHz.hex'
p801
sS'path'
p802
S'atmega'
p803
sS'unlock_bits'
p804
S'0x3F'
p805
ssS'upload'
p806
(dp807
S'protocol'
p808
S'arduino'
p809
sS'maximum_size'
p810
S'30720'
p811
sS'speed'
p812
S'57600'
p813
ssS'build'
p814
(dp815
S'core'
p816
S'arduino'
p817
sS'mcu'
p818
S'atmega328p'
p819
sS'f_cpu'
p820
S'8000000L'
p821
sS'variant'
p822
S'standard'
p823
ssS'name'
p824
S'LilyPad Arduino w/ ATmega328'
p825
saa(lp826
S'lilypad'
p827
a(dp828
S'bootloader'
p829
(dp830
S'extended_fuses'
p831
S'0x00'
p832
sS'high_fuses'
p833
S'0xdd'
p834
sS'low_fuses'
p835
S'0xe2'
p836
sS'lock_bits'
p837
S'0x0F'
p838
sS'file'
p839
S'LilyPadBOOT_168.hex'
p840
sS'path'
p841
S'lilypad'
p842
sS'unlock_bits'
p843
S'0x3F'
p844
ssS'upload'
p845
(dp846
S'protocol'
p847
S'arduino'
p848
sS'maximum_size'
p849
S'14336'
p850
sS'speed'
p851
S'19200'
p852
ssS'build'
p853
(dp854
S'core'
p855
S'arduino'
p856
sS'mcu'
p857
S'atmega168'
p858
sS'f_cpu'
p859
S'8000000L'
p860
sS'variant'
p861
S'standard'
p862
ssS'name'
p863
S'LilyPad Arduino w/ ATmega168'
p864
saa(lp865
S'pro5v328'
p866
a(dp867
S'bootloader'
p868
(dp869
S'extended_fuses'
p870
S'0x05'
p871
sS'high_fuses'
p872
S'0xDA'
p873
sS'low_fuses'
p874
S'0xFF'
p875
sS'lock_bits'
p876
S'0x0F'
p877
sS'file'
p878
S'ATmegaBOOT_168_atmega328.hex'
p879
sS'path'
p880
S'atmega'
p881
sS'unlock_bits'
p882
S'0x3F'
p883
ssS'upload'
p884
(dp885
S'protocol'
p886
S'arduino'
p887
sS'maximum_size'
p888
S'30720'
p889
sS'speed'
p890
S'57600'
p891
ssS'build'
p892
(dp893
S'core'
p894
S'arduino'
p895
sS'mcu'
p896
S'atmega328p'
p897
sS'f_cpu'
p898
S'16000000L'
p899
sS'variant'
p900
S'standard'
p901
ssS'name'
p902
S'Arduino Pro or Pro Mini (5V, 16 MHz) w/ ATmega328'
p903
saa(lp904
S'pro5v'
p905
a(dp906
S'bootloader'
p907
(dp908
S'extended_fuses'
p909
S'0x00'
p910
sS'high_fuses'
p911
S'0xdd'
p912
sS'low_fuses'
p913
S'0xff'
p914
sS'lock_bits'
p915
S'0x0F'
p916
sS'file'
p917
S'ATmegaBOOT_168_diecimila.hex'
p918
sS'path'
p919
S'atmega'
p920
sS'unlock_bits'
p921
S'0x3F'
p922
ssS'upload'
p923
(dp924
S'protocol'
p925
S'arduino'
p926
sS'maximum_size'
p927
S'14336'
p928
sS'speed'
p929
S'19200'
p930
ssS'build'
p931
(dp932
S'core'
p933
S'arduino'
p934
sS'mcu'
p935
S'atmega168'
p936
sS'f_cpu'
p937
S'16000000L'
p938
sS'variant'
p939
S'standard'
p940
ssS'name'
p941
S'Arduino Pro or Pro Mini (5V, 16 MHz) w/ ATmega168'
p942
saa(lp943
S'pro328'
p944
a(dp945
S'bootloader'
p946
(dp947
S'extended_fuses'
p948
S'0x05'
p949
sS'high_fuses'
p950
S'0xDA'
p951
sS'low_fuses'
p952
S'0xFF'
p953
sS'lock_bits'
p954
S'0x0F'
p955
sS'file'
p956
S'ATmegaBOOT_168_atmega328_pro_8MHz.hex'
p957
sS'path'
p958
S'atmega'
p959
sS'unlock_bits'
p960
S'0x3F'
p961
ssS'upload'
p962
(dp963
S'protocol'
p964
S'arduino'
p965
sS'maximum_size'
p966
S'30720'
p967
sS'speed'
p968
S'57600'
p969
ssS'build'
p970
(dp971
S'core'
p972
S'arduino'
p973
sS'mcu'
p974
S'atmega328p'
p975
sS'f_cpu'
p976
S'8000000L'
p977
sS'variant'
p978
S'standard'
p979
ssS'name'
p980
S'Arduino Pro or Pro Mini (3.3V, 8 MHz) w/ ATmega328'
p981
saa(lp982
S'pro'
p983
a(dp984
S'bootloader'
p985
(dp986
S'extended_fuses'
p987
S'0x00'
p988
sS'high_fuses'
p989
S'0xdd'
p990
sS'low_fuses'
p991
S'0xc6'
p992
sS'lock_bits'
p993
S'0x0F'
p994
sS'file'
p995
S'ATmegaBOOT_168_pro_8MHz.hex'
p996
sS'path'
p997
S'atmega'
p998
sS'unlock_bits'
p999
S'0x3F'
p1000
ssS'upload'
p1001
(dp1002
S'protocol'
p1003
S'arduino'
p1004
sS'maximum_size'
p1005
S'14336'
p1006
sS'speed'
p1007
S'19200'
p1008
ssS'build'
p1009
(dp1010
S'core'
p1011
S'arduino'
p1012
sS'mcu'
p1013
S'atmega168'
p1014
sS'f_cpu'
p1015
S'8000000L'
p1016
sS'variant'
p1017
S'standard'
p1018
ssS'name'
p1019
S'Arduino Pro or Pro Mini (3.3V, 8 MHz) w/ ATmega168'
p1020
saa(lp1021
S'atmega168'
p1022
a(dp1023
S'bootloader'
p1024
(dp1025
S'extended_fuses'
p1026
S'0x00'
p1027
sS'high_fuses'
p1028
S'0xdd'
p1029
sS'low_fuses'
p1030
S'0xff'
p1031
sS'lock_bits'
p1032
S'0x0F'
p1033
sS'file'
p1034
S'ATmegaBOOT_168_ng.hex'
p1035
sS'path'
p1036
S'atmega'
p1037
sS'unlock_bits'
p1038
S'0x3F'
p1039
ssS'upload'
p1040
(dp1041
S'protocol'
p1042
S'arduino'
p1043
sS'maximum_size'
p1044
S'14336'
p1045
sS'speed'
p1046
S'19200'
p1047
ssS'build'
p1048
(dp1049
S'core'
p1050
S'arduino'
p1051
sS'mcu'
p1052
S'atmega168'
p1053
sS'f_cpu'
p1054
S'16000000L'
p1055
sS'variant'
p1056
S'standard'
p1057
ssS'name'
p1058
S'Arduino NG or older w/ ATmega168'
p1059
saa(lp1060
S'atmega8'
p1061
a(dp1062
S'bootloader'
p1063
(dp1064
S'high_fuses'
p1065
S'0xca'
p1066
sS'low_fuses'
p1067
S'0xdf'
p1068
sS'lock_bits'
p1069
S'0x0F'
p1070
sS'file'
p1071
S'ATmegaBOOT-prod-firmware-2009-11-07.hex'
p1072
sS'path'
p1073
S'atmega8'
p1074
sS'unlock_bits'
p1075
S'0x3F'
p1076
ssS'upload'
p1077
(dp1078
S'protocol'
p1079
S'arduino'
p1080
sS'maximum_size'
p1081
S'7168'
p1082
sS'speed'
p1083
S'19200'
p1084
ssS'build'
p1085
(dp1086
S'core'
p1087
S'arduino'
p1088
sS'mcu'
p1089
S'atmega8'
p1090
sS'f_cpu'
p1091
S'16000000L'
p1092
sS'variant'
p1093
S'standard'
p1094
ssS'name'
p1095
S'Arduino NG or older w/ ATmega8'
p1096
saa(lp1097
S'robotControl'
p1098
a(dp1099
S'bootloader'
p1100
(dp1101
S'extended_fuses'
p1102
S'0xcb'
p1103
sS'high_fuses'
p1104
S'0xd8'
p1105
sS'low_fuses'
p1106
S'0xff'
p1107
sS'lock_bits'
p1108
S'0x2F'
p1109
sS'file'
p1110
S'Caterina-Robot-Control.hex'
p1111
sS'path'
p1112
S'caterina-Arduino_Robot'
p1113
sS'unlock_bits'
p1114
S'0x3F'
p1115
ssS'upload'
p1116
(dp1117
S'protocol'
p1118
S'avr109'
p1119
sS'maximum_size'
p1120
S'28672'
p1121
sS'speed'
p1122
S'57600'
p1123
sS'disable_flushing'
p1124
S'true'
p1125
ssS'build'
p1126
(dp1127
S'core'
p1128
S'robot'
p1129
sS'f_cpu'
p1130
S'16000000L'
p1131
sS'vid'
p1132
S'0x2341'
p1133
sS'pid'
p1134
S'0x8038'
p1135
sS'variant'
p1136
S'robot_control'
p1137
sS'mcu'
p1138
S'atmega32u4'
p1139
ssS'name'
p1140
S'Arduino Robot Control'
p1141
saa(lp1142
S'robotMotor'
p1143
a(dp1144
S'bootloader'
p1145
(dp1146
S'extended_fuses'
p1147
S'0xcb'
p1148
sS'high_fuses'
p1149
S'0xd8'
p1150
sS'low_fuses'
p1151
S'0xff'
p1152
sS'lock_bits'
p1153
S'0x2F'
p1154
sS'file'
p1155
S'Caterina-Robot-Motor.hex'
p1156
sS'path'
p1157
S'caterina-Arduino_Robot'
p1158
sS'unlock_bits'
p1159
S'0x3F'
p1160
ssS'upload'
p1161
(dp1162
S'protocol'
p1163
S'avr109'
p1164
sS'maximum_size'
p1165
S'28672'
p1166
sS'speed'
p1167
S'57600'
p1168
sS'disable_flushing'
p1169
S'true'
p1170
ssS'build'
p1171
(dp1172
S'core'
p1173
S'robot'
p1174
sS'f_cpu'
p1175
S'16000000L'
p1176
sS'vid'
p1177
S'0x2341'
p1178
sS'pid'
p1179
S'0x8039'
p1180
sS'variant'
p1181
S'robot_motor'
p1182
sS'mcu'
p1183
S'atmega32u4'
p1184
ssS'name'
p1185
S'Arduino Robot Motor'
p1186
saatp1187
Rp1188
(dp1189
S'default'
p1190
S'uno'
p1191
sbtp1192
a(S'ldflags'
p1193
g2
(g3
g4
(lp1194
g6
aS'-Wl,-Os'
p1195
aS'-Wl,--gc-sections'
p1196
atp1197
Rp1198
tp1199
a.